; Function Attrs: nounwind uwtable
define dso_local i32 @nghttp2_session_server_new3(ptr noundef writeonly captures(none) %0, ptr noundef readonly captures(none) %1, ptr noundef %2, ptr noundef %3, ptr noundef %4) local_unnamed_addr #1 {
  %6 = alloca ptr, align 8
  call void @llvm.lifetime.start.p0(i64 8, ptr nonnull %6) #20
  %7 = call fastcc i32 @session_new(ptr noundef %6, ptr noundef %1, ptr noundef %2, i32 noundef 1, ptr noundef %3, ptr noundef %4)
  %.not = icmp eq i32 %7, 0
  br i1 %.not, label %8, label %11

8:                                                ; preds = %5
  %9 = load ptr, ptr %6, align 8, !tbaa !43
  %10 = getelementptr inbounds nuw i8, ptr %9, i64 2712
  store i32 2, ptr %10, align 8, !tbaa !45
  store ptr %9, ptr %0, align 8, !tbaa !43
  br label %11

11:                                               ; preds = %5, %8
  call void @llvm.lifetime.end.p0(i64 8, ptr nonnull %6) #20
  ret i32 %7
}